; Function Attrs: nofree norecurse nosync nounwind memory(readwrite, inaccessiblemem: none) uwtable
define void @nxsem_destroyholder(ptr noundef captures(none) %0) local_unnamed_addr #1 {
  %2 = getelementptr inbounds nuw i8, ptr %0, i64 24
  %3 = load ptr, ptr %2, align 8
  %.not.i = icmp eq ptr %3, null
  br i1 %.not.i, label %nxsem_foreachholder.exit, label %.lr.ph.i

.lr.ph.i:                                         ; preds = %1, %nxsem_recoverholders.exit
  %.010.i = phi ptr [ %4, %nxsem_recoverholders.exit ], [ %3, %1 ]
  %4 = load ptr, ptr %.010.i, align 8
  %5 = getelementptr inbounds nuw i8, ptr %.010.i, i64 24
  %6 = load ptr, ptr %5, align 8
  %7 = getelementptr inbounds nuw i8, ptr %6, i64 56
  %8 = load ptr, ptr %7, align 8
  %.not28.i.i = icmp eq ptr %8, null
  br i1 %.not28.i.i, label %.loopexit25.i.i, label %.lr.ph.i.preheader.i

.lr.ph.i.preheader.i:                             ; preds = %.lr.ph.i
  %9 = icmp eq ptr %8, %.010.i
  br i1 %9, label %.lr.ph.i._crit_edge.i, label %.lr.ph.i2

.lr.ph.i2:                                        ; preds = %.lr.ph.i.preheader.i, %.lr.ph.i.i
  %10 = phi ptr [ %12, %.lr.ph.i.i ], [ %8, %.lr.ph.i.preheader.i ]
  %11 = getelementptr inbounds nuw i8, ptr %10, i64 8
  %12 = load ptr, ptr %11, align 8
  %.not.i.i = icmp eq ptr %12, null
  br i1 %.not.i.i, label %.loopexit25.i.i, label %.lr.ph.i.i, !llvm.loop !8

.lr.ph.i.i:                                       ; preds = %.lr.ph.i2
  %13 = icmp eq ptr %12, %.010.i
  br i1 %13, label %.lr.ph.i._crit_edge.i.loopexit, label %.lr.ph.i2, !llvm.loop !8

.lr.ph.i._crit_edge.i.loopexit:                   ; preds = %.lr.ph.i.i
  %14 = getelementptr inbounds nuw i8, ptr %10, i64 8
  br label %.lr.ph.i._crit_edge.i

.lr.ph.i._crit_edge.i:                            ; preds = %.lr.ph.i._crit_edge.i.loopexit, %.lr.ph.i.preheader.i
  %.029.i.lcssa.i = phi ptr [ %7, %.lr.ph.i.preheader.i ], [ %14, %.lr.ph.i._crit_edge.i.loopexit ]
  %15 = getelementptr inbounds nuw i8, ptr %.010.i, i64 8
  %16 = load ptr, ptr %15, align 8
  store ptr %16, ptr %.029.i.lcssa.i, align 8
  br label %.loopexit25.i.i

.loopexit25.i.i:                                  ; preds = %.lr.ph.i2, %.lr.ph.i._crit_edge.i, %.lr.ph.i
  %17 = getelementptr inbounds nuw i8, ptr %.010.i, i64 8
  tail call void @llvm.memset.p0.i64(ptr noundef nonnull align 8 dereferenceable(26) %17, i8 0, i64 26, i1 false)
  br label %18

18:                                               ; preds = %20, %.loopexit25.i.i
  %.1.i.i = phi ptr [ %2, %.loopexit25.i.i ], [ %19, %20 ]
  %19 = load ptr, ptr %.1.i.i, align 8
  %.not24.i.i = icmp eq ptr %19, null
  br i1 %.not24.i.i, label %nxsem_recoverholders.exit, label %20

20:                                               ; preds = %18
  %21 = icmp eq ptr %19, %.010.i
  br i1 %21, label %22, label %18, !llvm.loop !9

22:                                               ; preds = %20
  %23 = load ptr, ptr %.010.i, align 8
  store ptr %23, ptr %.1.i.i, align 8
  br label %nxsem_recoverholders.exit

nxsem_recoverholders.exit:                        ; preds = %18, %22
  %24 = load ptr, ptr @g_freeholders, align 8
  store ptr %24, ptr %.010.i, align 8
  store ptr %.010.i, ptr @g_freeholders, align 8
  %.not = icmp eq ptr %4, null
  br i1 %.not, label %nxsem_foreachholder.exit, label %.lr.ph.i, !llvm.loop !10

nxsem_foreachholder.exit:                         ; preds = %nxsem_recoverholders.exit, %1
  ret void
}